; ModuleID = '50/1851.c'
source_filename = "50/1851.c"
target datalayout = "e-m:e-p270:32:32-p271:32:32-p272:64:64-i64:64-f80:128-n8:16:32:64-S128"
target triple = "x86_64-pc-linux-gnu"

@.str = private unnamed_addr constant [3 x i8] c"%d\00", align 1
@.str.1 = private unnamed_addr constant [4 x i8] c"%d\0A\00", align 1

; Function Attrs: noinline nounwind uwtable
define dso_local i32 @main() #0 {
  %1 = alloca i32, align 4
  %2 = alloca i32, align 4
  %3 = alloca i32, align 4
  %4 = alloca i32, align 4
  %5 = alloca i32, align 4
  %6 = alloca i32, align 4
  store i32 0, i32* %1, align 4
  %7 = call i32 (i8*, ...) @__isoc99_scanf(i8* getelementptr inbounds ([3 x i8], [3 x i8]* @.str, i64 0, i64 0), i32* %2)
  store i32 1, i32* %3, align 4
  br label %8

8:                                                ; preds = %32, %0
  %9 = load i32, i32* %3, align 4
  %10 = icmp sle i32 %9, 12
  br i1 %10, label %11, label %35

11:                                               ; preds = %8
  %12 = load i32, i32* %3, align 4
  %13 = call i32 @DiJiTian(i32 %12)
  %14 = sub nsw i32 %13, 1
  store i32 %14, i32* %6, align 4
  %15 = load i32, i32* %6, align 4
  %16 = srem i32 %15, 7
  store i32 %16, i32* %4, align 4
  %17 = load i32, i32* %4, align 4
  %18 = load i32, i32* %2, align 4
  %19 = add nsw i32 %17, %18
  store i32 %19, i32* %5, align 4
  %20 = load i32, i32* %5, align 4
  %21 = icmp sgt i32 %20, 7
  br i1 %21, label %22, label %25

22:                                               ; preds = %11
  %23 = load i32, i32* %5, align 4
  %24 = sub nsw i32 %23, 7
  store i32 %24, i32* %5, align 4
  br label %25

25:                                               ; preds = %22, %11
  %26 = load i32, i32* %5, align 4
  %27 = icmp eq i32 %26, 5
  br i1 %27, label %28, label %31

28:                                               ; preds = %25
  %29 = load i32, i32* %3, align 4
  %30 = call i32 (i8*, ...) @printf(i8* getelementptr inbounds ([4 x i8], [4 x i8]* @.str.1, i64 0, i64 0), i32 %29)
  br label %31

31:                                               ; preds = %28, %25
  br label %32

32:                                               ; preds = %31
  %33 = load i32, i32* %3, align 4
  %34 = add nsw i32 %33, 1
  store i32 %34, i32* %3, align 4
  br label %8

35:                                               ; preds = %8
  ret i32 0
}

declare dso_local i32 @__isoc99_scanf(i8*, ...) #1

; Function Attrs: noinline nounwind uwtable
define dso_local i32 @DiJiTian(i32 %0) #0 {
  %2 = alloca i32, align 4
  %3 = alloca i32, align 4
  %4 = alloca i32, align 4
  store i32 %0, i32* %2, align 4
  %5 = load i32, i32* %2, align 4
  %6 = icmp eq i32 %5, 1
  br i1 %6, label %7, label %8

7:                                                ; preds = %1
  store i32 13, i32* %3, align 4
  br label %67

8:                                                ; preds = %1
  store i32 0, i32* %3, align 4
  store i32 1, i32* %4, align 4
  br label %9

9:                                                ; preds = %61, %8
  %10 = load i32, i32* %4, align 4
  %11 = load i32, i32* %2, align 4
  %12 = icmp slt i32 %10, %11
  br i1 %12, label %13, label %64

13:                                               ; preds = %9
  %14 = load i32, i32* %4, align 4
  %15 = icmp eq i32 %14, 1
  br i1 %15, label %34, label %16

16:                                               ; preds = %13
  %17 = load i32, i32* %4, align 4
  %18 = icmp eq i32 %17, 3
  br i1 %18, label %34, label %19

19:                                               ; preds = %16
  %20 = load i32, i32* %4, align 4
  %21 = icmp eq i32 %20, 5
  br i1 %21, label %34, label %22

22:                                               ; preds = %19
  %23 = load i32, i32* %4, align 4
  %24 = icmp eq i32 %23, 7
  br i1 %24, label %34, label %25

25:                                               ; preds = %22
  %26 = load i32, i32* %4, align 4
  %27 = icmp eq i32 %26, 8
  br i1 %27, label %34, label %28

28:                                               ; preds = %25
  %29 = load i32, i32* %4, align 4
  %30 = icmp eq i32 %29, 10
  br i1 %30, label %34, label %31

31:                                               ; preds = %28
  %32 = load i32, i32* %4, align 4
  %33 = icmp eq i32 %32, 12
  br i1 %33, label %34, label %37

34:                                               ; preds = %31, %28, %25, %22, %19, %16, %13
  %35 = load i32, i32* %3, align 4
  %36 = add nsw i32 %35, 31
  store i32 %36, i32* %3, align 4
  br label %60

37:                                               ; preds = %31
  %38 = load i32, i32* %4, align 4
  %39 = icmp eq i32 %38, 4
  br i1 %39, label %49, label %40

40:                                               ; preds = %37
  %41 = load i32, i32* %4, align 4
  %42 = icmp eq i32 %41, 6
  br i1 %42, label %49, label %43

43:                                               ; preds = %40
  %44 = load i32, i32* %4, align 4
  %45 = icmp eq i32 %44, 9
  br i1 %45, label %49, label %46

46:                                               ; preds = %43
  %47 = load i32, i32* %4, align 4
  %48 = icmp eq i32 %47, 11
  br i1 %48, label %49, label %52

49:                                               ; preds = %46, %43, %40, %37
  %50 = load i32, i32* %3, align 4
  %51 = add nsw i32 %50, 30
  store i32 %51, i32* %3, align 4
  br label %59

52:                                               ; preds = %46
  %53 = load i32, i32* %4, align 4
  %54 = icmp eq i32 %53, 2
  br i1 %54, label %55, label %58

55:                                               ; preds = %52
  %56 = load i32, i32* %3, align 4
  %57 = add nsw i32 %56, 28
  store i32 %57, i32* %3, align 4
  br label %58

58:                                               ; preds = %55, %52
  br label %59

59:                                               ; preds = %58, %49
  br label %60

60:                                               ; preds = %59, %34
  br label %61

61:                                               ; preds = %60
  %62 = load i32, i32* %4, align 4
  %63 = add nsw i32 %62, 1
  store i32 %63, i32* %4, align 4
  br label %9

64:                                               ; preds = %9
  %65 = load i32, i32* %3, align 4
  %66 = add nsw i32 %65, 13
  store i32 %66, i32* %3, align 4
  br label %67

67:                                               ; preds = %64, %7
  %68 = load i32, i32* %3, align 4
  ret i32 %68
}

declare dso_local i32 @printf(i8*, ...) #1


!llvm.module.flags = !{!0}
!llvm.ident = !{!1}

!0 = !{i32 1, !"wchar_size", i32 4}
!1 = !{!"clang version 10.0.0-4ubuntu1 "}
